; Function Attrs: nounwind uwtable
define noundef i32 @Gia_ManBmciTest(ptr noundef readonly captures(none) %0, ptr noundef readonly captures(none) %1, i32 noundef %2, i32 noundef %3, i32 noundef %4, i32 noundef %5, i32 noundef %6) local_unnamed_addr #0 {
  %8 = getelementptr i8, ptr %0, i64 16
  %.val = load i32, ptr %8, align 8, !tbaa !30
  %9 = tail call noalias dereferenceable_or_null(16) ptr @malloc(i64 noundef 16) #18
  %10 = add i32 %.val, -1
  %or.cond.i.i = icmp ult i32 %10, 15
  %spec.store.select.i.i = select i1 %or.cond.i.i, i32 16, i32 %.val
  %11 = getelementptr inbounds nuw i8, ptr %9, i64 4
  store i32 %spec.store.select.i.i, ptr %9, align 8, !tbaa !42
  %.not.i.i = icmp eq i32 %spec.store.select.i.i, 0
  br i1 %.not.i.i, label %Vec_IntAlloc.exit.thread.i, label %Vec_IntAlloc.exit.i

Vec_IntAlloc.exit.thread.i:                       ; preds = %7
  %12 = getelementptr inbounds nuw i8, ptr %9, i64 8
  store ptr null, ptr %12, align 8, !tbaa !33
  store i32 %.val, ptr %11, align 4, !tbaa !32
  br label %Vec_IntStart.exit.thread

Vec_IntAlloc.exit.i:                              ; preds = %7
  %13 = sext i32 %spec.store.select.i.i to i64
  %14 = shl nsw i64 %13, 2
  %15 = tail call noalias ptr @malloc(i64 noundef %14) #18
  %16 = getelementptr inbounds nuw i8, ptr %9, i64 8
  store ptr %15, ptr %16, align 8, !tbaa !33
  store i32 %.val, ptr %11, align 4, !tbaa !32
  %.not.i = icmp eq ptr %15, null
  br i1 %.not.i, label %Vec_IntStart.exit.thread, label %18

Vec_IntStart.exit.thread:                         ; preds = %Vec_IntAlloc.exit.thread.i, %Vec_IntAlloc.exit.i
  %17 = tail call i32 @Bmc_BmciPerform(ptr noundef nonnull %0, ptr noundef %1, ptr noundef nonnull %9, i32 noundef %2, i32 poison, i32 noundef %4, i32 noundef %6)
  br label %Vec_IntFree.exit

18:                                               ; preds = %Vec_IntAlloc.exit.i
  %19 = sext i32 %.val to i64
  %20 = shl nsw i64 %19, 2
  tail call void @llvm.memset.p0.i64(ptr nonnull align 4 %15, i8 0, i64 %20, i1 false)
  %21 = tail call i32 @Bmc_BmciPerform(ptr noundef nonnull %0, ptr noundef %1, ptr noundef nonnull %9, i32 noundef %2, i32 poison, i32 noundef %4, i32 noundef %6)
  tail call void @free(ptr noundef nonnull %15) #16
  br label %Vec_IntFree.exit

Vec_IntFree.exit:                                 ; preds = %Vec_IntStart.exit.thread, %18
  tail call void @free(ptr noundef nonnull %9) #16
  ret i32 1
}